Certificate:
    Data:
        Version: 3 (0x2)
        Serial Number: 1 (0x1)
        Signature Algorithm: sha1WithRSAEncryption
        Issuer: C=US, ST=WA, L=Seattle, CN=intermediate-ca
        Validity
            Not Before: Mar  1 20:16:23 2016 GMT
            Not After : Apr  9 20:16:23 2021 GMT
        Subject: C=US, ST=WA, L=Seattle, CN=*.f5example.com
        Subject Public Key Info:
            Public Key Algorithm: rsaEncryption
            RSA Public Key: (2048 bit)
                Modulus (2048 bit):
                    00:d4:ac:77:0f:39:c3:80:f4:38:cc:00:05:9c:84:
                    d9:d8:48:73:7e:25:42:65:20:ae:e6:e1:72:39:be:
                    a1:ab:bd:08:23:7e:13:8b:f1:04:21:99:3e:0b:bd:
                    ba:aa:d8:ab:56:af:25:d7:3d:95:70:44:99:40:66:
                    d0:06:ae:19:1a:1a:d8:3b:ba:29:2e:16:a2:40:1e:
                    25:52:5b:01:af:77:b0:f3:13:2e:55:e0:52:e2:4c:
                    8c:bb:22:53:28:01:5c:ed:34:e7:75:cf:77:80:90:
                    66:66:6c:84:d4:5a:26:2d:fa:78:e6:b0:25:72:b9:
                    12:d3:8c:51:df:54:1a:5a:f1:51:af:21:c0:07:5b:
                    f7:96:01:66:29:65:0d:b4:24:12:18:c2:42:71:4f:
                    74:70:2e:05:ee:f1:e8:3c:df:15:d6:f6:3b:10:e8:
                    9e:38:c4:64:15:dd:44:74:6c:b2:b1:5d:16:ca:58:
                    dd:69:58:3d:c9:50:d9:ff:99:16:f9:ae:3c:0c:c6:
                    c6:31:77:13:0a:9c:41:5a:53:6d:49:04:90:e8:8c:
                    f3:5c:75:5e:4b:dc:6b:b5:ce:9d:9c:1a:da:73:19:
                    71:33:53:c3:62:c3:99:5c:8a:8f:ec:ae:50:e1:56:
                    e0:e0:2a:02:36:59:36:4a:e5:03:61:b3:88:ab:91:
                    be:e9
                Exponent: 65537 (0x10001)
        X509v3 extensions:
            X509v3 Basic Constraints: 
                CA:FALSE
            Netscape Cert Type: 
                SSL Server
            X509v3 Key Usage: 
                Digital Signature, Key Encipherment
            X509v3 Extended Key Usage: 
                TLS Web Server Authentication, Netscape Server Gated Crypto, Microsoft Server Gated Crypto
            Netscape Comment: 
                OpenSSL Certificate for SSL Web Server
    Signature Algorithm: sha1WithRSAEncryption
        69:ca:56:81:84:68:e9:a4:08:f6:e6:80:5f:48:be:08:da:dc:
        76:d0:9a:df:f8:34:29:97:e9:95:4a:b6:24:76:ce:20:88:13:
        44:63:bc:58:ca:8d:97:b8:83:a7:54:e3:9a:cd:80:32:70:48:
        67:3c:c4:09:ca:1c:4a:d7:1d:0f:4e:2c:71:3c:29:6c:96:68:
        96:f6:4d:e6:7a:b3:64:0c:30:e1:b7:ab:11:b8:14:d4:cf:86:
        7d:f1:99:2a:85:ad:ca:79:fc:e6:6f:a8:2b:95:e6:c0:4b:7f:
        e9:cf:01:ee:8e:56:12:5c:e7:05:fc:e3:0f:81:ab:9f:0e:2f:
        78:86:9c:44:bd:d5:2b:e9:59:e9:77:b9:3e:e0:5c:18:e1:3e:
        d8:db:40:64:37:91:47:2f:67:4d:92:47:6c:0a:c2:84:0c:ac:
        a7:bd:7e:7b:88:af:72:f8:8e:2a:fc:40:51:b3:74:9d:99:79:
        df:b2:40:a9:bd:fa:df:4f:dc:3f:26:34:d8:6d:a6:6f:25:4c:
        56:fa:f7:93:34:05:3e:a9:15:cb:2e:93:59:28:89:4c:3b:f4:
        c8:28:42:be:a3:a7:e8:76:67:c1:9b:8c:01:36:8a:d3:82:57:
        ba:05:36:f6:27:4c:74:2a:91:86:3a:a7:72:2a:f8:14:44:4e:
        20:03:bb:c4
-----BEGIN CERTIFICATE-----
MIIDmTCCAoGgAwIBAgIBATANBgkqhkiG9w0BAQUFADBGMQswCQYDVQQGEwJVUzEL
MAkGA1UECBMCV0ExEDAOBgNVBAcTB1NlYXR0bGUxGDAWBgNVBAMTD2ludGVybWVk
aWF0ZS1jYTAeFw0xNjAzMDEyMDE2MjNaFw0yMTA0MDkyMDE2MjNaMEYxCzAJBgNV
BAYTAlVTMQswCQYDVQQIEwJXQTEQMA4GA1UEBxMHU2VhdHRsZTEYMBYGA1UEAxQP
Ki5mNWV4YW1wbGUuY29tMIIBIjANBgkqhkiG9w0BAQEFAAOCAQ8AMIIBCgKCAQEA
1Kx3DznDgPQ4zAAFnITZ2EhzfiVCZSCu5uFyOb6hq70II34Ti/EEIZk+C726qtir
Vq8l1z2VcESZQGbQBq4ZGhrYO7opLhaiQB4lUlsBr3ew8xMuVeBS4kyMuyJTKAFc
7TTndc93gJBmZmyE1FomLfp45rAlcrkS04xR31QaWvFRryHAB1v3lgFmKWUNtCQS
GMJCcU90cC4F7vHoPN8V1vY7EOieOMRkFd1EdGyysV0WyljdaVg9yVDZ/5kW+a48
DMbGMXcTCpxBWlNtSQSQ6IzzXHVeS9xrtc6dnBracxlxM1PDYsOZXIqP7K5Q4Vbg
4CoCNlk2SuUDYbOIq5G+6QIDAQABo4GRMIGOMAkGA1UdEwQCMAAwEQYJYIZIAYb4
QgEBBAQDAgZAMAsGA1UdDwQEAwIFoDAqBgNVHSUEIzAhBggrBgEFBQcDAQYJYIZI
AYb4QgQBBgorBgEEAYI3CgMDMDUGCWCGSAGG+EIBDQQoFiZPcGVuU1NMIENlcnRp
ZmljYXRlIGZvciBTU0wgV2ViIFNlcnZlcjANBgkqhkiG9w0BAQUFAAOCAQEAacpW
gYRo6aQI9uaAX0i+CNrcdtCa3/g0KZfplUq2JHbOIIgTRGO8WMqNl7iDp1Tjms2A
MnBIZzzECcocStcdD04scTwpbJZolvZN5nqzZAww4berEbgU1M+GffGZKoWtynn8
5m+oK5XmwEt/6c8B7o5WElznBfzjD4Grnw4veIacRL3VK+lZ6Xe5PuBcGOE+2NtA
ZDeRRy9nTZJHbArChAysp71+e4ivcviOKvxAUbN0nZl537JAqb3630/cPyY02G2m
byVMVvr3kzQFPqkVyy6TWSiJTDv0yChCvqOn6HZnwZuMATaK04JXugU29idMdCqR
hjqncir4FEROIAO7xA==
-----END CERTIFICATE-----
